target datalayout = "e-m:e-p270:32:32-p271:32:32-p272:64:64-i64:64-i128:128-f80:128-n8:16:32:64-S128"
target triple = "x86_64-pc-linux-gnu"

%"class.lean::optional" = type { i8, %union.anon }
%union.anon = type { %"class.lean::expr" }
%"class.lean::expr" = type { %"class.lean::object_ref" }
%"class.lean::object_ref" = type { ptr }

; Function Attrs: mustprogress nounwind uwtable
define linkonce_odr hidden noundef nonnull align 8 dereferenceable(8) ptr @_ZN4lean8optionalINS_4exprEEdeEv(ptr noundef nonnull align 8 dereferenceable(16) %0) #4 comdat align 2 {
  %2 = alloca ptr, align 8
  store ptr %0, ptr %2, align 8, !tbaa !14
  %3 = load ptr, ptr %2, align 8
  %4 = getelementptr inbounds nuw %"class.lean::optional", ptr %3, i32 0, i32 1
  ret ptr %4
}

; Function Attrs: mustprogress nounwind uwtable
define linkonce_odr hidden noundef zeroext i1 @_ZNK4lean8optionalINS_4exprEEcvbEv(ptr noundef nonnull align 8 dereferenceable(16) %0) #4 comdat align 2 {
  %2 = alloca ptr, align 8
  store ptr %0, ptr %2, align 8, !tbaa !14
  %3 = load ptr, ptr %2, align 8
  %4 = getelementptr inbounds nuw %"class.lean::optional", ptr %3, i32 0, i32 0
  %5 = load i8, ptr %4, align 8, !tbaa !16, !range !19, !noundef !20
  %6 = trunc i8 %5 to i1
  ret i1 %6
}

; Function Attrs: mustprogress uwtable
define hidden noundef zeroext i1 @_ZN4lean6is_numERKNS_4exprE(ptr noundef nonnull align 8 dereferenceable(8) %0) #0 {
  %2 = alloca ptr, align 8
  store ptr %0, ptr %2, align 8, !tbaa !3
  %3 = load ptr, ptr %2, align 8, !tbaa !3
  %4 = call noundef zeroext i1 @_ZN4leanL6is_numERKNS_4exprEb(ptr noundef nonnull align 8 dereferenceable(8) %3, i1 noundef zeroext true)
  ret i1 %4
}

; Function Attrs: mustprogress uwtable
define hidden noundef zeroext i1 @_ZN4lean13is_signed_numERKNS_4exprE(ptr noundef nonnull align 8 dereferenceable(8) %0) #0 personality ptr @__gxx_personality_v0 {
  %2 = alloca i1, align 1
  %3 = alloca ptr, align 8
  %4 = alloca %"class.lean::optional", align 8
  %5 = alloca ptr, align 8
  %6 = alloca i32, align 4
  %7 = alloca i32, align 4
  store ptr %0, ptr %3, align 8, !tbaa !3
  %8 = load ptr, ptr %3, align 8, !tbaa !3
  %9 = call noundef zeroext i1 @_ZN4lean6is_numERKNS_4exprE(ptr noundef nonnull align 8 dereferenceable(8) %8)
  br i1 %9, label %10, label %11

10:                                               ; preds = %1
  store i1 true, ptr %2, align 1
  br label %26

11:                                               ; preds = %1
  call void @llvm.lifetime.start.p0(i64 16, ptr %4) #12
  %12 = load ptr, ptr %3, align 8, !tbaa !3
  call void @_ZN4lean6is_negERKNS_4exprE(ptr dead_on_unwind writable sret(%"class.lean::optional") align 8 %4, ptr noundef nonnull align 8 dereferenceable(8) %12)
  %13 = invoke noundef zeroext i1 @_ZNK4lean8optionalINS_4exprEEcvbEv(ptr noundef nonnull align 8 dereferenceable(16) %4)
          to label %14 unwind label %20

14:                                               ; preds = %11
  br i1 %13, label %15, label %24

15:                                               ; preds = %14
  %16 = invoke noundef nonnull align 8 dereferenceable(8) ptr @_ZN4lean8optionalINS_4exprEEdeEv(ptr noundef nonnull align 8 dereferenceable(16) %4)
          to label %17 unwind label %20

17:                                               ; preds = %15
  %18 = invoke noundef zeroext i1 @_ZN4lean6is_numERKNS_4exprE(ptr noundef nonnull align 8 dereferenceable(8) %16)
          to label %19 unwind label %20

19:                                               ; preds = %17
  store i1 %18, ptr %2, align 1
  store i32 1, ptr %7, align 4
  br label %25

20:                                               ; preds = %17, %15, %11
  %21 = landingpad { ptr, i32 }
          cleanup
  %22 = extractvalue { ptr, i32 } %21, 0
  store ptr %22, ptr %5, align 8
  %23 = extractvalue { ptr, i32 } %21, 1
  store i32 %23, ptr %6, align 4
  call void @_ZN4lean8optionalINS_4exprEED2Ev(ptr noundef nonnull align 8 dereferenceable(16) %4) #12
  call void @llvm.lifetime.end.p0(i64 16, ptr %4) #12
  br label %28

24:                                               ; preds = %14
  store i1 false, ptr %2, align 1
  store i32 1, ptr %7, align 4
  br label %25

25:                                               ; preds = %24, %19
  call void @_ZN4lean8optionalINS_4exprEED2Ev(ptr noundef nonnull align 8 dereferenceable(16) %4) #12
  call void @llvm.lifetime.end.p0(i64 16, ptr %4) #12
  br label %26

26:                                               ; preds = %25, %10
  %27 = load i1, ptr %2, align 1
  ret i1 %27

28:                                               ; preds = %20
  %29 = load ptr, ptr %5, align 8
  %30 = load i32, ptr %6, align 4
  %31 = insertvalue { ptr, i32 } poison, ptr %29, 0
  %32 = insertvalue { ptr, i32 } %31, i32 %30, 1
  resume { ptr, i32 } %32
}