; Function Attrs: mustprogress uwtable
define hidden noundef zeroext i1 @_ZN4lean13is_signed_numERKNS_4exprE(ptr noundef nonnull align 8 dereferenceable(8) %0) local_unnamed_addr #0 personality ptr @__gxx_personality_v0 {
  %2 = alloca %"class.lean::optional", align 8
  %3 = tail call fastcc noundef zeroext i1 @_ZN4leanL6is_numERKNS_4exprEb(ptr noundef nonnull align 8 dereferenceable(8) %0, i1 noundef zeroext true)
  br i1 %3, label %28, label %4

4:                                                ; preds = %1
  call void @llvm.lifetime.start.p0(i64 16, ptr nonnull %2) #10
  call void @_ZN4lean6is_negERKNS_4exprE(ptr dead_on_unwind nonnull writable sret(%"class.lean::optional") align 8 %2, ptr noundef nonnull align 8 dereferenceable(8) %0)
  %5 = load i8, ptr %2, align 8, !tbaa !8, !range !39, !noundef !40
  %6 = trunc nuw i8 %5 to i1
  br i1 %6, label %7, label %_ZN4lean8optionalINS_4exprEED2Ev.exit

7:                                                ; preds = %4
  %8 = getelementptr inbounds nuw i8, ptr %2, i64 8
  %9 = invoke fastcc noundef zeroext i1 @_ZN4leanL6is_numERKNS_4exprEb(ptr noundef nonnull align 8 dereferenceable(8) %8, i1 noundef zeroext true)
          to label %_ZN4lean6is_numERKNS_4exprE.exit unwind label %10

10:                                               ; preds = %7
  %11 = landingpad { ptr, i32 }
          cleanup
  call void @_ZN4lean8optionalINS_4exprEED2Ev(ptr noundef nonnull align 8 dereferenceable(16) %2) #10
  call void @llvm.lifetime.end.p0(i64 16, ptr nonnull %2) #10
  resume { ptr, i32 } %11

_ZN4lean6is_numERKNS_4exprE.exit:                 ; preds = %7
  %.pre = load i8, ptr %2, align 8, !tbaa !8, !range !39
  %12 = trunc nuw i8 %.pre to i1
  br i1 %12, label %13, label %_ZN4lean8optionalINS_4exprEED2Ev.exit

13:                                               ; preds = %_ZN4lean6is_numERKNS_4exprE.exit
  %14 = getelementptr inbounds nuw i8, ptr %2, i64 8
  %15 = load ptr, ptr %14, align 8, !tbaa !3
  %16 = ptrtoint ptr %15 to i64
  %17 = and i64 %16, 1
  %.not.i.i.i = icmp eq i64 %17, 0
  br i1 %.not.i.i.i, label %18, label %_ZN4lean8optionalINS_4exprEED2Ev.exit

18:                                               ; preds = %13
  %19 = load i32, ptr %15, align 4, !tbaa !17
  %20 = icmp sgt i32 %19, 1
  br i1 %20, label %21, label %23, !prof !20

21:                                               ; preds = %18
  %22 = add nsw i32 %19, -1
  store i32 %22, ptr %15, align 4, !tbaa !17
  br label %_ZN4lean8optionalINS_4exprEED2Ev.exit

23:                                               ; preds = %18
  %.not.i.i.i.i = icmp eq i32 %19, 0
  br i1 %.not.i.i.i.i, label %_ZN4lean8optionalINS_4exprEED2Ev.exit, label %24

24:                                               ; preds = %23
  invoke void @lean_dec_ref_cold(ptr noundef nonnull %15)
          to label %_ZN4lean8optionalINS_4exprEED2Ev.exit unwind label %25

25:                                               ; preds = %24
  %26 = landingpad { ptr, i32 }
          catch ptr null
  %27 = extractvalue { ptr, i32 } %26, 0
  call void @__clang_call_terminate(ptr %27) #11
  unreachable

_ZN4lean8optionalINS_4exprEED2Ev.exit:            ; preds = %4, %_ZN4lean6is_numERKNS_4exprE.exit, %13, %21, %23, %24
  %.15 = phi i1 [ %9, %_ZN4lean6is_numERKNS_4exprE.exit ], [ %9, %13 ], [ %9, %21 ], [ %9, %23 ], [ %9, %24 ], [ false, %4 ]
  call void @llvm.lifetime.end.p0(i64 16, ptr nonnull %2) #10
  br label %28

28:                                               ; preds = %1, %_ZN4lean8optionalINS_4exprEED2Ev.exit
  %.0 = phi i1 [ %.15, %_ZN4lean8optionalINS_4exprEED2Ev.exit ], [ true, %1 ]
  ret i1 %.0
}